target datalayout = "e-m:e-p270:32:32-p271:32:32-p272:64:64-i64:64-i128:128-f80:128-n8:16:32:64-S128"
target triple = "x86_64-unknown-linux-gnu"

%"class.nlohmann::json_abi_v3_11_3::basic_json.185" = type { %"struct.nlohmann::json_abi_v3_11_3::basic_json<std::map, std::vector, std::__cxx11::basic_string<char>, bool, long, unsigned long, double, (anonymous namespace)::allocator_no_forward>::data" }
%"struct.nlohmann::json_abi_v3_11_3::basic_json<std::map, std::vector, std::__cxx11::basic_string<char>, bool, long, unsigned long, double, (anonymous namespace)::allocator_no_forward>::data" = type { i8, %"union.nlohmann::json_abi_v3_11_3::basic_json<std::map, std::vector, std::__cxx11::basic_string<char>, bool, long, unsigned long, double, (anonymous namespace)::allocator_no_forward>::json_value" }
%"union.nlohmann::json_abi_v3_11_3::basic_json<std::map, std::vector, std::__cxx11::basic_string<char>, bool, long, unsigned long, double, (anonymous namespace)::allocator_no_forward>::json_value" = type { ptr }

; Function Attrs: mustprogress nounwind uwtable
define internal void @_ZN8nlohmann16json_abi_v3_11_310basic_jsonISt3mapSt6vectorNSt7__cxx1112basic_stringIcSt11char_traitsIcESaIcEEEblmdN12_GLOBAL__N_120allocator_no_forwardENS0_14adl_serializerES3_IhSaIhEEvE4dataD2Ev(ptr noundef nonnull align 8 dereferenceable(16) %this) unnamed_addr #1 align 2 personality ptr @__gxx_personality_v0 {
entry:
  %this.addr = alloca ptr, align 8
  store ptr %this, ptr %this.addr, align 8
  %this1 = load ptr, ptr %this.addr, align 8
  %m_value = getelementptr inbounds %"struct.nlohmann::json_abi_v3_11_3::basic_json<std::map, std::vector, std::__cxx11::basic_string<char>, bool, long, unsigned long, double, (anonymous namespace)::allocator_no_forward>::data", ptr %this1, i32 0, i32 1
  %m_type = getelementptr inbounds %"struct.nlohmann::json_abi_v3_11_3::basic_json<std::map, std::vector, std::__cxx11::basic_string<char>, bool, long, unsigned long, double, (anonymous namespace)::allocator_no_forward>::data", ptr %this1, i32 0, i32 0
  %0 = load i8, ptr %m_type, align 8
  invoke void @_ZN8nlohmann16json_abi_v3_11_310basic_jsonISt3mapSt6vectorNSt7__cxx1112basic_stringIcSt11char_traitsIcESaIcEEEblmdN12_GLOBAL__N_120allocator_no_forwardENS0_14adl_serializerES3_IhSaIhEEvE10json_value7destroyENS0_6detail7value_tE(ptr noundef nonnull align 8 dereferenceable(8) %m_value, i8 noundef zeroext %0)
          to label %invoke.cont unwind label %terminate.lpad

invoke.cont:                                      ; preds = %entry
  ret void

terminate.lpad:                                   ; preds = %entry
  %1 = landingpad { ptr, i32 }
          catch ptr null
  %2 = extractvalue { ptr, i32 } %1, 0
  call void @__clang_call_terminate(ptr %2) #15
  unreachable
}

; Function Attrs: mustprogress nounwind uwtable
define internal void @_ZNK8nlohmann16json_abi_v3_11_310basic_jsonISt3mapSt6vectorNSt7__cxx1112basic_stringIcSt11char_traitsIcESaIcEEEblmdN12_GLOBAL__N_120allocator_no_forwardENS0_14adl_serializerES3_IhSaIhEEvE16assert_invariantEb(ptr noundef nonnull align 8 dereferenceable(16) %this, i1 noundef zeroext %check_parents) #1 align 2 {
entry:
  %this.addr = alloca ptr, align 8
  %check_parents.addr = alloca i8, align 1
  store ptr %this, ptr %this.addr, align 8
  %frombool = zext i1 %check_parents to i8
  store i8 %frombool, ptr %check_parents.addr, align 1
  ret void
}

; Function Attrs: mustprogress nounwind uwtable
define internal void @_ZN8nlohmann16json_abi_v3_11_310basic_jsonISt3mapSt6vectorNSt7__cxx1112basic_stringIcSt11char_traitsIcESaIcEEEblmdN12_GLOBAL__N_120allocator_no_forwardENS0_14adl_serializerES3_IhSaIhEEvED2Ev(ptr noundef nonnull align 8 dereferenceable(16) %this) unnamed_addr #1 align 2 {
entry:
  %this.addr = alloca ptr, align 8
  store ptr %this, ptr %this.addr, align 8
  %this1 = load ptr, ptr %this.addr, align 8
  call void @_ZNK8nlohmann16json_abi_v3_11_310basic_jsonISt3mapSt6vectorNSt7__cxx1112basic_stringIcSt11char_traitsIcESaIcEEEblmdN12_GLOBAL__N_120allocator_no_forwardENS0_14adl_serializerES3_IhSaIhEEvE16assert_invariantEb(ptr noundef nonnull align 8 dereferenceable(16) %this1, i1 noundef zeroext false) #14
  %m_data = getelementptr inbounds %"class.nlohmann::json_abi_v3_11_3::basic_json.185", ptr %this1, i32 0, i32 0
  call void @_ZN8nlohmann16json_abi_v3_11_310basic_jsonISt3mapSt6vectorNSt7__cxx1112basic_stringIcSt11char_traitsIcESaIcEEEblmdN12_GLOBAL__N_120allocator_no_forwardENS0_14adl_serializerES3_IhSaIhEEvE4dataD2Ev(ptr noundef nonnull align 8 dereferenceable(16) %m_data) #14
  ret void
}

; Function Attrs: mustprogress nounwind uwtable
define internal void @_ZNSt15__new_allocatorIN8nlohmann16json_abi_v3_11_310basic_jsonISt3mapSt6vectorNSt7__cxx1112basic_stringIcSt11char_traitsIcESaIcEEEblmdN12_GLOBAL__N_120allocator_no_forwardENS1_14adl_serializerES4_IhSaIhEEvEEE7destroyISG_EEvPT_(ptr noundef nonnull align 1 dereferenceable(1) %this, ptr noundef %__p) #1 align 2 {
entry:
  %this.addr = alloca ptr, align 8
  %__p.addr = alloca ptr, align 8
  store ptr %this, ptr %this.addr, align 8
  store ptr %__p, ptr %__p.addr, align 8
  %0 = load ptr, ptr %__p.addr, align 8
  call void @_ZN8nlohmann16json_abi_v3_11_310basic_jsonISt3mapSt6vectorNSt7__cxx1112basic_stringIcSt11char_traitsIcESaIcEEEblmdN12_GLOBAL__N_120allocator_no_forwardENS0_14adl_serializerES3_IhSaIhEEvED2Ev(ptr noundef nonnull align 8 dereferenceable(16) %0) #14
  ret void
}

; Function Attrs: mustprogress nounwind uwtable
define internal void @_ZNSt16allocator_traitsIN12_GLOBAL__N_120allocator_no_forwardIN8nlohmann16json_abi_v3_11_310basic_jsonISt3mapSt6vectorNSt7__cxx1112basic_stringIcSt11char_traitsIcESaIcEEEblmdS1_NS3_14adl_serializerES6_IhSaIhEEvEEEEE10_S_destroyISH_SG_EEDTcldtfp_7destroyfp0_EERT_PT0_i(ptr noundef nonnull align 1 dereferenceable(1) %__a, ptr noundef %__p, i32 noundef %0) #1 align 2 {
entry:
  %__a.addr = alloca ptr, align 8
  %__p.addr = alloca ptr, align 8
  %.addr = alloca i32, align 4
  store ptr %__a, ptr %__a.addr, align 8
  store ptr %__p, ptr %__p.addr, align 8
  store i32 %0, ptr %.addr, align 4
  %1 = load ptr, ptr %__a.addr, align 8
  %2 = load ptr, ptr %__p.addr, align 8
  call void @_ZNSt15__new_allocatorIN8nlohmann16json_abi_v3_11_310basic_jsonISt3mapSt6vectorNSt7__cxx1112basic_stringIcSt11char_traitsIcESaIcEEEblmdN12_GLOBAL__N_120allocator_no_forwardENS1_14adl_serializerES4_IhSaIhEEvEEE7destroyISG_EEvPT_(ptr noundef nonnull align 1 dereferenceable(1) %1, ptr noundef %2) #14
  ret void
}

; Function Attrs: mustprogress nounwind uwtable
define internal void @_ZNSt16allocator_traitsIN12_GLOBAL__N_120allocator_no_forwardIN8nlohmann16json_abi_v3_11_310basic_jsonISt3mapSt6vectorNSt7__cxx1112basic_stringIcSt11char_traitsIcESaIcEEEblmdS1_NS3_14adl_serializerES6_IhSaIhEEvEEEEE7destroyISG_EEvRSH_PT_(ptr noundef nonnull align 1 dereferenceable(1) %__a, ptr noundef %__p) #1 align 2 {
entry:
  %__a.addr = alloca ptr, align 8
  %__p.addr = alloca ptr, align 8
  store ptr %__a, ptr %__a.addr, align 8
  store ptr %__p, ptr %__p.addr, align 8
  %0 = load ptr, ptr %__a.addr, align 8
  %1 = load ptr, ptr %__p.addr, align 8
  call void @_ZNSt16allocator_traitsIN12_GLOBAL__N_120allocator_no_forwardIN8nlohmann16json_abi_v3_11_310basic_jsonISt3mapSt6vectorNSt7__cxx1112basic_stringIcSt11char_traitsIcESaIcEEEblmdS1_NS3_14adl_serializerES6_IhSaIhEEvEEEEE10_S_destroyISH_SG_EEDTcldtfp_7destroyfp0_EERT_PT0_i(ptr noundef nonnull align 1 dereferenceable(1) %0, ptr noundef %1, i32 noundef 0) #14
  ret void
}

; Function Attrs: mustprogress nounwind uwtable
define internal void @_ZSt8_DestroyIPN8nlohmann16json_abi_v3_11_310basic_jsonISt3mapSt6vectorNSt7__cxx1112basic_stringIcSt11char_traitsIcESaIcEEEblmdN12_GLOBAL__N_120allocator_no_forwardENS1_14adl_serializerES4_IhSaIhEEvEENSC_ISG_EEEvT_SJ_RT0_(ptr noundef %__first, ptr noundef %__last, ptr noundef nonnull align 1 dereferenceable(1) %__alloc) #1 {
entry:
  %__first.addr = alloca ptr, align 8
  %__last.addr = alloca ptr, align 8
  %__alloc.addr = alloca ptr, align 8
  store ptr %__first, ptr %__first.addr, align 8
  store ptr %__last, ptr %__last.addr, align 8
  store ptr %__alloc, ptr %__alloc.addr, align 8
  br label %for.cond

for.cond:                                         ; preds = %for.inc, %entry
  %0 = load ptr, ptr %__first.addr, align 8
  %1 = load ptr, ptr %__last.addr, align 8
  %cmp = icmp ne ptr %0, %1
  br i1 %cmp, label %for.body, label %for.end

for.body:                                         ; preds = %for.cond
  %2 = load ptr, ptr %__alloc.addr, align 8
  %3 = load ptr, ptr %__first.addr, align 8
  call void @_ZNSt16allocator_traitsIN12_GLOBAL__N_120allocator_no_forwardIN8nlohmann16json_abi_v3_11_310basic_jsonISt3mapSt6vectorNSt7__cxx1112basic_stringIcSt11char_traitsIcESaIcEEEblmdS1_NS3_14adl_serializerES6_IhSaIhEEvEEEEE7destroyISG_EEvRSH_PT_(ptr noundef nonnull align 1 dereferenceable(1) %2, ptr noundef %3) #14
  br label %for.inc

for.inc:                                          ; preds = %for.body
  %4 = load ptr, ptr %__first.addr, align 8
  %incdec.ptr = getelementptr inbounds %"class.nlohmann::json_abi_v3_11_3::basic_json.185", ptr %4, i32 1
  store ptr %incdec.ptr, ptr %__first.addr, align 8
  br label %for.cond, !llvm.loop !48

for.end:                                          ; preds = %for.cond
  ret void
}